; Function Attrs: nounwind uwtable
define i64 @glfwGetTimerFrequency() local_unnamed_addr #0 {
  %1 = load i32, ptr @_glfw, align 8, !tbaa !170
  %.not = icmp eq i32 %1, 0
  br i1 %.not, label %2, label %3

2:                                                ; preds = %0
  tail call void (i32, ptr, ...) @_glfwInputError(i32 noundef 65537, ptr noundef null) #12
  br label %5

3:                                                ; preds = %0
  %4 = tail call i64 @_glfwPlatformGetTimerFrequency() #12
  br label %5

5:                                                ; preds = %3, %2
  %.0 = phi i64 [ %4, %3 ], [ 0, %2 ]
  ret i64 %.0
}